; Function Attrs: nounwind sspstrong uwtable
define dso_local ptr @job_next(ptr noundef readonly captures(address_is_null) %0) local_unnamed_addr #0 {
glib_autoptr_cleanup_QemuLockable.exit:
  %1 = load atomic i64, ptr @qemu_mutex_lock_func monotonic, align 8
  %2 = inttoptr i64 %1 to ptr
  tail call void %2(ptr noundef nonnull @job_mutex, ptr noundef nonnull @.str.29, i32 noundef 56) #15
  %.not.i = icmp eq ptr %0, null
  %3 = getelementptr inbounds nuw i8, ptr %0, i64 240
  %.0.in.i = select i1 %.not.i, ptr @jobs, ptr %3
  %.0.i = load ptr, ptr %.0.in.i, align 8
  tail call void @qemu_mutex_unlock_impl(ptr noundef nonnull @job_mutex, ptr noundef nonnull @.str.29, i32 noundef 56) #15
  ret ptr %.0.i
}